target datalayout = "e-m:e-p270:32:32-p271:32:32-p272:64:64-i64:64-i128:128-f80:128-n8:16:32:64-S128"
target triple = "x86_64-pc-linux-gnu"

%struct.expert_field = type { i32, i32 }
%struct._packet_info = type { ptr, ptr, i32, i32, %struct.nstime_t, %struct.nstime_t, %struct.nstime_t, i8, ptr, ptr, ptr, ptr, %struct._address, %struct._address, %struct._address, %struct._address, %struct._address, %struct._address, i32, ptr, i8, [3 x i8], %struct.anon, i32, i32, i32, i32, ptr, i8, ptr, ptr, i16, i16, i32, i32, i16, i32, i32, ptr, ptr, ptr, i8, i8, i16, i16, i16, i32, i16, i16, ptr, ptr, ptr, ptr, ptr, i32, i32 }
%struct.nstime_t = type { i64, i32 }
%struct._address = type { i32, i32, ptr, ptr }
%struct.anon = type { i8, [3 x i8] }

@hf_bytes = internal global i32 0, align 4
@hf_knxip_session = internal global i32 0, align 4
@ei_knxip_error = hidden global %struct.expert_field zeroinitializer, align 4
@.str.231 = private unnamed_addr constant [3 x i8] c"? \00", align 1
@.str.242 = private unnamed_addr constant [3 x i8] c"%s\00", align 1
@.str.267 = private unnamed_addr constant [5 x i8] c"%02X\00", align 1
@.str.333 = private unnamed_addr constant [19 x i8] c"Expected: %u bytes\00", align 1
@.str.337 = private unnamed_addr constant [6 x i8] c" %02X\00", align 1
@.str.343 = private unnamed_addr constant [6 x i8] c"%s: $\00", align 1
@.str.373 = private unnamed_addr constant [19 x i8] c"Expected: 16 bytes\00", align 1
@.str.392 = private unnamed_addr constant [18 x i8] c"Expected: 2 bytes\00", align 1
@.str.441 = private unnamed_addr constant [10 x i8] c"? Session\00", align 1
@.str.442 = private unnamed_addr constant [7 x i8] c" #%04X\00", align 1
@.str.465 = private unnamed_addr constant [28 x i8] c"Message Authentication Code\00", align 1
@.str.472 = private unnamed_addr constant [30 x i8] c"? Message Authentication Code\00", align 1
@.str.479 = private unnamed_addr constant [23 x i8] c"DH Server Public Value\00", align 1

; Function Attrs: null_pointer_is_valid sspstrong uwtable
define internal ptr @knxip_tree_add_data(ptr noundef %0, ptr noundef %1, i32 noundef %2, i32 noundef %3, ptr noundef %4, ptr noundef %5, ptr noundef %6, ptr noundef %7, ptr noundef %8) #0 {
  %10 = alloca ptr, align 8
  %11 = alloca ptr, align 8
  %12 = alloca i32, align 4
  %13 = alloca i32, align 4
  %14 = alloca ptr, align 8
  %15 = alloca ptr, align 8
  %16 = alloca ptr, align 8
  %17 = alloca ptr, align 8
  %18 = alloca ptr, align 8
  %19 = alloca ptr, align 8
  %20 = alloca i8, align 1
  store ptr %0, ptr %10, align 8
  store ptr %1, ptr %11, align 8
  store i32 %2, ptr %12, align 4
  store i32 %3, ptr %13, align 4
  store ptr %4, ptr %14, align 8
  store ptr %5, ptr %15, align 8
  store ptr %6, ptr %16, align 8
  store ptr %7, ptr %17, align 8
  store ptr %8, ptr %18, align 8
  call void @llvm.lifetime.start.p0(i64 8, ptr %19) #9
  %21 = load ptr, ptr %10, align 8
  %22 = load i32, ptr @hf_bytes, align 4
  %23 = load ptr, ptr %11, align 8
  %24 = load i32, ptr %12, align 4
  %25 = load i32, ptr %13, align 4
  %26 = load ptr, ptr %16, align 8
  %27 = call ptr (ptr, i32, ptr, i32, i32, ptr, ptr, ...) @proto_tree_add_bytes_format(ptr noundef %21, i32 noundef %22, ptr noundef %23, i32 noundef %24, i32 noundef %25, ptr noundef null, ptr noundef @.str.343, ptr noundef %26)
  store ptr %27, ptr %19, align 8
  %28 = load ptr, ptr %17, align 8
  %29 = icmp ne ptr %28, null
  br i1 %29, label %30, label %33

30:                                               ; preds = %9
  %31 = load ptr, ptr %14, align 8
  %32 = load ptr, ptr %17, align 8
  call void @col_append_str(ptr noundef %31, i32 noundef 25, ptr noundef %32)
  br label %33

33:                                               ; preds = %30, %9
  %34 = load ptr, ptr %18, align 8
  %35 = icmp ne ptr %34, null
  br i1 %35, label %36, label %39

36:                                               ; preds = %33
  %37 = load ptr, ptr %15, align 8
  %38 = load ptr, ptr %18, align 8
  call void (ptr, ptr, ...) @proto_item_append_text(ptr noundef %37, ptr noundef @.str.242, ptr noundef %38)
  br label %39

39:                                               ; preds = %36, %33
  br label %40

40:                                               ; preds = %60, %39
  %41 = load i32, ptr %13, align 4
  %42 = icmp sgt i32 %41, 0
  br i1 %42, label %43, label %68

43:                                               ; preds = %40
  call void @llvm.lifetime.start.p0(i64 1, ptr %20) #9
  %44 = load ptr, ptr %11, align 8
  %45 = load i32, ptr %12, align 4
  %46 = call zeroext i8 @tvb_get_uint8(ptr noundef %44, i32 noundef %45)
  store i8 %46, ptr %20, align 1
  %47 = load ptr, ptr %17, align 8
  %48 = icmp ne ptr %47, null
  br i1 %48, label %49, label %53

49:                                               ; preds = %43
  %50 = load ptr, ptr %14, align 8
  %51 = load i8, ptr %20, align 1
  %52 = zext i8 %51 to i32
  call void (ptr, i32, ptr, ...) @col_append_fstr(ptr noundef %50, i32 noundef 25, ptr noundef @.str.267, i32 noundef %52)
  br label %53

53:                                               ; preds = %49, %43
  %54 = load ptr, ptr %18, align 8
  %55 = icmp ne ptr %54, null
  br i1 %55, label %56, label %60

56:                                               ; preds = %53
  %57 = load ptr, ptr %15, align 8
  %58 = load i8, ptr %20, align 1
  %59 = zext i8 %58 to i32
  call void (ptr, ptr, ...) @proto_item_append_text(ptr noundef %57, ptr noundef @.str.267, i32 noundef %59)
  br label %60

60:                                               ; preds = %56, %53
  %61 = load ptr, ptr %19, align 8
  %62 = load i8, ptr %20, align 1
  %63 = zext i8 %62 to i32
  call void (ptr, ptr, ...) @proto_item_append_text(ptr noundef %61, ptr noundef @.str.337, i32 noundef %63)
  %64 = load i32, ptr %12, align 4
  %65 = add i32 %64, 1
  store i32 %65, ptr %12, align 4
  %66 = load i32, ptr %13, align 4
  %67 = add i32 %66, -1
  store i32 %67, ptr %13, align 4
  call void @llvm.lifetime.end.p0(i64 1, ptr %20) #9
  br label %40, !llvm.loop !24

68:                                               ; preds = %40
  %69 = load ptr, ptr %19, align 8
  call void @llvm.lifetime.end.p0(i64 8, ptr %19) #9
  ret ptr %69
}

; Function Attrs: null_pointer_is_valid sspstrong uwtable
define internal zeroext i8 @dissect_session_response(ptr noundef %0, ptr noundef %1, ptr noundef %2, ptr noundef %3, ptr noundef %4) #0 {
  %6 = alloca ptr, align 8
  %7 = alloca ptr, align 8
  %8 = alloca ptr, align 8
  %9 = alloca ptr, align 8
  %10 = alloca ptr, align 8
  %11 = alloca i8, align 1
  %12 = alloca i32, align 4
  %13 = alloca ptr, align 8
  %14 = alloca i32, align 4
  %15 = alloca ptr, align 8
  %16 = alloca i16, align 2
  %17 = alloca i32, align 4
  store ptr %0, ptr %6, align 8
  store ptr %1, ptr %7, align 8
  store ptr %2, ptr %8, align 8
  store ptr %3, ptr %9, align 8
  store ptr %4, ptr %10, align 8
  call void @llvm.lifetime.start.p0(i64 1, ptr %11) #9
  store i8 1, ptr %11, align 1
  call void @llvm.lifetime.start.p0(i64 4, ptr %12) #9
  %18 = load ptr, ptr %10, align 8
  %19 = load i32, ptr %18, align 4
  store i32 %19, ptr %12, align 4
  call void @llvm.lifetime.start.p0(i64 8, ptr %13) #9
  %20 = load ptr, ptr %7, align 8
  %21 = getelementptr inbounds nuw %struct._packet_info, ptr %20, i32 0, i32 1
  %22 = load ptr, ptr %21, align 8
  store ptr %22, ptr %13, align 8
  call void @llvm.lifetime.start.p0(i64 4, ptr %14) #9
  %23 = load ptr, ptr %6, align 8
  %24 = load i32, ptr %12, align 4
  %25 = call i32 @tvb_captured_length_remaining(ptr noundef %23, i32 noundef %24)
  store i32 %25, ptr %14, align 4
  call void @llvm.lifetime.start.p0(i64 8, ptr %15) #9
  %26 = load i32, ptr %14, align 4
  %27 = icmp slt i32 %26, 2
  br i1 %27, label %28, label %41

28:                                               ; preds = %5
  %29 = load ptr, ptr %9, align 8
  %30 = load i32, ptr @hf_bytes, align 4
  %31 = load ptr, ptr %6, align 8
  %32 = load i32, ptr %12, align 4
  %33 = load i32, ptr %14, align 4
  %34 = call ptr (ptr, i32, ptr, i32, i32, ptr, ptr, ...) @proto_tree_add_bytes_format(ptr noundef %29, i32 noundef %30, ptr noundef %31, i32 noundef %32, i32 noundef %33, ptr noundef null, ptr noundef @.str.441)
  store ptr %34, ptr %15, align 8
  %35 = load ptr, ptr %7, align 8
  %36 = load ptr, ptr %15, align 8
  %37 = call ptr (ptr, ptr, ptr, ptr, ...) @expert_add_info_format(ptr noundef %35, ptr noundef %36, ptr noundef @ei_knxip_error, ptr noundef @.str.392)
  %38 = load i32, ptr %14, align 4
  %39 = load i32, ptr %12, align 4
  %40 = add i32 %39, %38
  store i32 %40, ptr %12, align 4
  store i8 0, ptr %11, align 1
  br label %108

41:                                               ; preds = %5
  call void @llvm.lifetime.start.p0(i64 2, ptr %16) #9
  %42 = load ptr, ptr %6, align 8
  %43 = load i32, ptr %12, align 4
  %44 = call zeroext i16 @tvb_get_ntohs(ptr noundef %42, i32 noundef %43)
  store i16 %44, ptr %16, align 2
  %45 = load ptr, ptr %13, align 8
  %46 = load i16, ptr %16, align 2
  %47 = zext i16 %46 to i32
  call void (ptr, i32, ptr, ...) @col_append_fstr(ptr noundef %45, i32 noundef 25, ptr noundef @.str.442, i32 noundef %47)
  %48 = load ptr, ptr %8, align 8
  %49 = load i16, ptr %16, align 2
  %50 = zext i16 %49 to i32
  call void (ptr, ptr, ...) @proto_item_append_text(ptr noundef %48, ptr noundef @.str.442, i32 noundef %50)
  %51 = load ptr, ptr %9, align 8
  %52 = load i32, ptr @hf_knxip_session, align 4
  %53 = load ptr, ptr %6, align 8
  %54 = load i32, ptr %12, align 4
  %55 = call ptr @proto_tree_add_item(ptr noundef %51, i32 noundef %52, ptr noundef %53, i32 noundef %54, i32 noundef 2, i32 noundef 0)
  %56 = load i32, ptr %12, align 4
  %57 = add i32 %56, 2
  store i32 %57, ptr %12, align 4
  %58 = load i32, ptr %14, align 4
  %59 = sub i32 %58, 2
  store i32 %59, ptr %14, align 4
  call void @llvm.lifetime.start.p0(i64 4, ptr %17) #9
  %60 = load i32, ptr %14, align 4
  %61 = sub i32 %60, 16
  store i32 %61, ptr %17, align 4
  %62 = load i32, ptr %17, align 4
  %63 = icmp slt i32 %62, 0
  br i1 %63, label %64, label %65

64:                                               ; preds = %41
  store i32 0, ptr %17, align 4
  br label %65

65:                                               ; preds = %64, %41
  %66 = load ptr, ptr %9, align 8
  %67 = load ptr, ptr %6, align 8
  %68 = load i32, ptr %12, align 4
  %69 = load i32, ptr %17, align 4
  %70 = call ptr @knxip_tree_add_data(ptr noundef %66, ptr noundef %67, i32 noundef %68, i32 noundef %69, ptr noundef null, ptr noundef null, ptr noundef @.str.479, ptr noundef null, ptr noundef null)
  store ptr %70, ptr %15, align 8
  %71 = load i32, ptr %17, align 4
  %72 = icmp ne i32 %71, 32
  br i1 %72, label %73, label %78

73:                                               ; preds = %65
  %74 = load ptr, ptr %15, align 8
  call void (ptr, ptr, ...) @proto_item_prepend_text(ptr noundef %74, ptr noundef @.str.231)
  %75 = load ptr, ptr %7, align 8
  %76 = load ptr, ptr %15, align 8
  %77 = call ptr (ptr, ptr, ptr, ptr, ...) @expert_add_info_format(ptr noundef %75, ptr noundef %76, ptr noundef @ei_knxip_error, ptr noundef @.str.333, i32 noundef 32)
  store i8 0, ptr %11, align 1
  br label %78

78:                                               ; preds = %73, %65
  %79 = load i32, ptr %17, align 4
  %80 = load i32, ptr %12, align 4
  %81 = add i32 %80, %79
  store i32 %81, ptr %12, align 4
  %82 = load i32, ptr %17, align 4
  %83 = load i32, ptr %14, align 4
  %84 = sub i32 %83, %82
  store i32 %84, ptr %14, align 4
  call void @llvm.lifetime.end.p0(i64 4, ptr %17) #9
  %85 = load i32, ptr %14, align 4
  %86 = icmp slt i32 %85, 16
  br i1 %86, label %87, label %100

87:                                               ; preds = %78
  %88 = load ptr, ptr %9, align 8
  %89 = load i32, ptr @hf_bytes, align 4
  %90 = load ptr, ptr %6, align 8
  %91 = load i32, ptr %12, align 4
  %92 = load i32, ptr %14, align 4
  %93 = call ptr (ptr, i32, ptr, i32, i32, ptr, ptr, ...) @proto_tree_add_bytes_format(ptr noundef %88, i32 noundef %89, ptr noundef %90, i32 noundef %91, i32 noundef %92, ptr noundef null, ptr noundef @.str.472)
  store ptr %93, ptr %15, align 8
  %94 = load ptr, ptr %7, align 8
  %95 = load ptr, ptr %15, align 8
  %96 = call ptr (ptr, ptr, ptr, ptr, ...) @expert_add_info_format(ptr noundef %94, ptr noundef %95, ptr noundef @ei_knxip_error, ptr noundef @.str.373)
  %97 = load i32, ptr %14, align 4
  %98 = load i32, ptr %12, align 4
  %99 = add i32 %98, %97
  store i32 %99, ptr %12, align 4
  store i8 0, ptr %11, align 1
  br label %107

100:                                              ; preds = %78
  %101 = load ptr, ptr %9, align 8
  %102 = load ptr, ptr %6, align 8
  %103 = load i32, ptr %12, align 4
  %104 = call ptr @knxip_tree_add_data(ptr noundef %101, ptr noundef %102, i32 noundef %103, i32 noundef 16, ptr noundef null, ptr noundef null, ptr noundef @.str.465, ptr noundef null, ptr noundef null)
  %105 = load i32, ptr %12, align 4
  %106 = add i32 %105, 16
  store i32 %106, ptr %12, align 4
  br label %107

107:                                              ; preds = %100, %87
  call void @llvm.lifetime.end.p0(i64 2, ptr %16) #9
  br label %108

108:                                              ; preds = %107, %28
  %109 = load i32, ptr %12, align 4
  %110 = load ptr, ptr %10, align 8
  store i32 %109, ptr %110, align 4
  %111 = load i8, ptr %11, align 1
  call void @llvm.lifetime.end.p0(i64 8, ptr %15) #9
  call void @llvm.lifetime.end.p0(i64 4, ptr %14) #9
  call void @llvm.lifetime.end.p0(i64 8, ptr %13) #9
  call void @llvm.lifetime.end.p0(i64 4, ptr %12) #9
  call void @llvm.lifetime.end.p0(i64 1, ptr %11) #9
  ret i8 %111
}