; Function Attrs: null_pointer_is_valid sspstrong uwtable
define internal fastcc zeroext range(i8 0, 2) i8 @dissect_session_response(ptr noundef %0, ptr noundef %1, ptr noundef %2, ptr noundef %3, ptr noundef captures(none) %4) unnamed_addr #0 {
  %6 = load i32, ptr %4, align 4
  %7 = getelementptr inbounds nuw i8, ptr %1, i64 8
  %8 = load ptr, ptr %7, align 8
  %9 = tail call i32 @tvb_captured_length_remaining(ptr noundef %0, i32 noundef %6)
  %10 = icmp slt i32 %9, 2
  br i1 %10, label %11, label %16

11:                                               ; preds = %5
  %12 = load i32, ptr @hf_bytes, align 4
  %13 = tail call ptr (ptr, i32, ptr, i32, i32, ptr, ptr, ...) @proto_tree_add_bytes_format(ptr noundef %3, i32 noundef %12, ptr noundef %0, i32 noundef %6, i32 noundef %9, ptr noundef null, ptr noundef nonnull @.str.441)
  %14 = tail call ptr (ptr, ptr, ptr, ptr, ...) @expert_add_info_format(ptr noundef %1, ptr noundef %13, ptr noundef nonnull @ei_knxip_error, ptr noundef nonnull @.str.392)
  %15 = add i32 %9, %6
  br label %48

16:                                               ; preds = %5
  %17 = tail call zeroext i16 @tvb_get_ntohs(ptr noundef %0, i32 noundef %6)
  %18 = zext i16 %17 to i32
  tail call void (ptr, i32, ptr, ...) @col_append_fstr(ptr noundef %8, i32 noundef 25, ptr noundef nonnull @.str.442, i32 noundef %18)
  tail call void (ptr, ptr, ...) @proto_item_append_text(ptr noundef %2, ptr noundef nonnull @.str.442, i32 noundef %18)
  %19 = load i32, ptr @hf_knxip_session, align 4
  %20 = tail call ptr @proto_tree_add_item(ptr noundef %3, i32 noundef %19, ptr noundef %0, i32 noundef %6, i32 noundef 2, i32 noundef 0)
  %21 = add i32 %6, 2
  %22 = add nsw i32 %9, -2
  %spec.store.select = tail call i32 @llvm.usub.sat.i32(i32 %9, i32 18)
  %23 = load i32, ptr @hf_bytes, align 4
  %24 = tail call ptr (ptr, i32, ptr, i32, i32, ptr, ptr, ...) @proto_tree_add_bytes_format(ptr noundef %3, i32 noundef %23, ptr noundef %0, i32 noundef %21, i32 noundef %spec.store.select, ptr noundef null, ptr noundef nonnull @.str.343, ptr noundef nonnull @.str.479)
  %.not64 = icmp samesign ult i32 %9, 19
  br i1 %.not64, label %knxip_tree_add_data.exit.thread, label %.lr.ph.split.us.split.us.i

.lr.ph.split.us.split.us.i:                       ; preds = %16, %.lr.ph.split.us.split.us.i
  %.029.us.us.i = phi i32 [ %27, %.lr.ph.split.us.split.us.i ], [ %21, %16 ]
  %.02428.us.us.i = phi i32 [ %28, %.lr.ph.split.us.split.us.i ], [ %spec.store.select, %16 ]
  %25 = tail call zeroext i8 @tvb_get_uint8(ptr noundef %0, i32 noundef %.029.us.us.i)
  %26 = zext i8 %25 to i32
  tail call void (ptr, ptr, ...) @proto_item_append_text(ptr noundef %24, ptr noundef nonnull @.str.337, i32 noundef %26)
  %27 = add i32 %.029.us.us.i, 1
  %28 = add nsw i32 %.02428.us.us.i, -1
  %29 = icmp samesign ugt i32 %.02428.us.us.i, 1
  br i1 %29, label %.lr.ph.split.us.split.us.i, label %knxip_tree_add_data.exit, !llvm.loop !29

knxip_tree_add_data.exit:                         ; preds = %.lr.ph.split.us.split.us.i
  %.not = icmp eq i32 %spec.store.select, 32
  br i1 %.not, label %31, label %knxip_tree_add_data.exit.thread

knxip_tree_add_data.exit.thread:                  ; preds = %16, %knxip_tree_add_data.exit
  tail call void (ptr, ptr, ...) @proto_item_prepend_text(ptr noundef %24, ptr noundef nonnull @.str.231)
  %30 = tail call ptr (ptr, ptr, ptr, ptr, ...) @expert_add_info_format(ptr noundef %1, ptr noundef %24, ptr noundef nonnull @ei_knxip_error, ptr noundef nonnull @.str.333, i32 noundef 32)
  br label %31

31:                                               ; preds = %knxip_tree_add_data.exit.thread, %knxip_tree_add_data.exit
  %.1 = phi i8 [ 0, %knxip_tree_add_data.exit.thread ], [ 1, %knxip_tree_add_data.exit ]
  %32 = add i32 %spec.store.select, %21
  %33 = sub i32 %22, %spec.store.select
  %34 = icmp slt i32 %33, 16
  %35 = load i32, ptr @hf_bytes, align 4
  br i1 %34, label %36, label %40

36:                                               ; preds = %31
  %37 = tail call ptr (ptr, i32, ptr, i32, i32, ptr, ptr, ...) @proto_tree_add_bytes_format(ptr noundef %3, i32 noundef %35, ptr noundef %0, i32 noundef %32, i32 noundef %33, ptr noundef null, ptr noundef nonnull @.str.472)
  %38 = tail call ptr (ptr, ptr, ptr, ptr, ...) @expert_add_info_format(ptr noundef %1, ptr noundef %37, ptr noundef nonnull @ei_knxip_error, ptr noundef nonnull @.str.373)
  %39 = add i32 %9, %6
  br label %48

40:                                               ; preds = %31
  %41 = tail call ptr (ptr, i32, ptr, i32, i32, ptr, ptr, ...) @proto_tree_add_bytes_format(ptr noundef %3, i32 noundef %35, ptr noundef %0, i32 noundef %32, i32 noundef 16, ptr noundef null, ptr noundef nonnull @.str.343, ptr noundef nonnull @.str.465)
  br label %.lr.ph.split.us.split.us.i59

.lr.ph.split.us.split.us.i59:                     ; preds = %.lr.ph.split.us.split.us.i59, %40
  %.029.us.us.i60 = phi i32 [ %44, %.lr.ph.split.us.split.us.i59 ], [ %32, %40 ]
  %.02428.us.us.i61 = phi i32 [ %45, %.lr.ph.split.us.split.us.i59 ], [ 16, %40 ]
  %42 = tail call zeroext i8 @tvb_get_uint8(ptr noundef %0, i32 noundef %.029.us.us.i60)
  %43 = zext i8 %42 to i32
  tail call void (ptr, ptr, ...) @proto_item_append_text(ptr noundef %41, ptr noundef nonnull @.str.337, i32 noundef %43)
  %44 = add i32 %.029.us.us.i60, 1
  %45 = add nsw i32 %.02428.us.us.i61, -1
  %46 = icmp samesign ugt i32 %.02428.us.us.i61, 1
  br i1 %46, label %.lr.ph.split.us.split.us.i59, label %knxip_tree_add_data.exit62, !llvm.loop !29

knxip_tree_add_data.exit62:                       ; preds = %.lr.ph.split.us.split.us.i59
  %47 = add i32 %32, 16
  br label %48

48:                                               ; preds = %36, %knxip_tree_add_data.exit62, %11
  %.053 = phi i32 [ %15, %11 ], [ %39, %36 ], [ %47, %knxip_tree_add_data.exit62 ]
  %.0 = phi i8 [ 0, %11 ], [ 0, %36 ], [ %.1, %knxip_tree_add_data.exit62 ]
  store i32 %.053, ptr %4, align 4
  ret i8 %.0
}